(dp0
S'notes'
p1
S''
p2
s.(dp0
S'commands'
p1
(lp2
s.(dp0
S'data'
p1
(dp2
S'success'
p3
I00
sS'normal'
p4
I00
sS'settings'
p5
(lp6
sS'output'
p7
S'1221631bbd2f6743c5fc86bbd6dee6f2'
p8
sS'date'
p9
cdatetime
datetime
p10
(S'\x07\xe2\x06\x1c\x0f)\x05\x01\xcc\x03'
p11
tp12
Rp13
sS'input'
p14
S''
p15
ss.(dp0
S'data'
p1
(dp2
S'success'
p3
I00
sS'normal'
p4
I00
sS'settings'
p5
(lp6
sS'output'
p7
S'1ce101eee893e18bc208514882a682bd'
p8
sS'date'
p9
cdatetime
datetime
p10
(S'\x07\xe2\x06\x1c\x0f)\x1e\x01\xf1t'
p11
tp12
Rp13
sS'input'
p14
S''
p15
ss.(dp0
S'data'
p1
(dp2
S'success'
p3
I00
sS'normal'
p4
I00
sS'settings'
p5
(lp6
sS'output'
p7
S'1ecebedb841b3cbda5c7b84bd9fdc17c'
p8
sS'date'
p9
cdatetime
datetime
p10
(S'\x07\xe2\x06\x1c\x0f)\x1f\x03A\xc9'
p11
tp12
Rp13
sS'input'
p14
S''
p15
ss.(dp0
S'data'
p1
(dp2
S'success'
p3
I00
sS'normal'
p4
I00
sS'settings'
p5
(lp6
sS'output'
p7
S'1b4dc060a6156050f4d16b674a50e63c'
p8
sS'date'
p9
cdatetime
datetime
p10
(S'\x07\xe2\x06\x1c\x0f))\x05v\x00'
p11
tp12
Rp13
sS'input'
p14
S''
p15
ss.(dp0
S'data'
p1
(dp2
S'success'
p3
I00
sS'normal'
p4
I00
sS'settings'
p5
(lp6
sS'output'
p7
S'8283ca2bcc7c0c6e9ec743034cbfea5f'
p8
sS'date'
p9
cdatetime
datetime
p10
(S'\x07\xe2\x06\x1c\x0f*\x1c\x07.\xa0'
p11
tp12
Rp13
sS'input'
p14
S''
p15
ss.